Certificate:
    Data:
        Version: 3 (0x2)
        Serial Number:
            86:fb:15:2a:dd:7b:ea:e6:bb:35:53:bb:36:ac:e0:eb
        Signature Algorithm: sha256WithRSAEncryption
        Issuer: CN=Easy-RSA CA
        Validity
            Not Before: May 16 00:22:40 2024 GMT
            Not After : May  1 00:22:40 2027 GMT
        Subject: CN=ms1
        Subject Public Key Info:
            Public Key Algorithm: rsaEncryption
                RSA Public-Key: (2048 bit)
                Modulus:
                    00:b8:ff:5a:a7:16:21:f6:a2:37:74:e9:72:02:c4:
                    43:28:26:69:55:6d:ec:4a:ae:78:6b:41:b2:1b:c9:
                    4f:13:59:c4:95:b7:c6:59:ba:dc:16:a5:4d:d8:11:
                    82:6d:7c:2c:ed:54:47:82:6a:b4:33:88:e0:3e:1f:
                    24:65:57:a0:d5:66:44:64:e8:38:d3:2e:57:f7:a9:
                    e0:5e:a9:ed:81:e1:4b:02:de:6b:b6:a8:6f:33:ab:
                    6d:3b:3b:6a:c4:06:65:16:6d:c7:e2:b9:00:a9:5a:
                    1f:0c:51:44:19:93:5d:82:d5:30:a8:cf:99:34:03:
                    af:e7:64:41:96:2d:2f:05:b1:2c:b7:7c:1f:bc:6a:
                    28:c1:2e:e3:65:de:b1:90:d0:2f:a7:6b:46:79:05:
                    cb:81:6f:c3:10:28:6f:56:db:ef:d8:1c:5f:36:72:
                    95:6c:a0:bb:0d:8f:ad:7b:1a:2c:62:00:bf:72:d6:
                    87:e9:2e:96:f3:f5:86:ec:52:35:1c:1e:1e:34:83:
                    28:cc:07:8c:7d:c6:56:9f:cd:93:7d:41:c0:30:e0:
                    4d:70:b7:2f:bb:df:c1:f0:24:fb:09:57:64:85:97:
                    5b:0c:44:c9:08:0d:c2:e9:16:94:7f:28:7e:11:7c:
                    9a:60:00:b7:47:98:e8:52:29:5c:94:80:19:6c:bc:
                    d6:91
                Exponent: 65537 (0x10001)
        X509v3 extensions:
            X509v3 Basic Constraints: 
                CA:FALSE
            X509v3 Subject Key Identifier: 
                8E:9A:AE:8B:09:26:2D:5E:BA:E3:AB:BE:AB:07:0C:8E:5B:50:9A:1D
            X509v3 Authority Key Identifier: 
                keyid:67:62:E3:B3:8D:E3:9F:D6:CF:7D:55:F4:01:14:8E:BC:75:10:4E:37
                DirName:/CN=Easy-RSA CA
                serial:72:D2:2B:18:D6:55:0A:1F:F2:46:F7:48:73:E8:BD:36:BF:7F:A8:F9

            X509v3 Extended Key Usage: 
                TLS Web Client Authentication
            X509v3 Key Usage: 
                Digital Signature
    Signature Algorithm: sha256WithRSAEncryption
         43:97:c7:54:a6:9b:3c:b7:e4:00:18:30:60:0b:22:d3:61:49:
         e0:b7:5e:07:7e:b8:97:53:60:a2:01:23:77:73:6d:f3:6a:8f:
         e2:76:1c:d8:d8:84:5c:bc:28:b7:1a:11:99:3b:9c:33:85:73:
         3b:5d:e2:cb:f7:45:a1:91:19:b8:d2:d9:61:19:52:50:ca:f5:
         a5:be:50:45:99:cf:02:81:21:99:65:81:09:86:b9:43:a0:be:
         e2:af:da:eb:42:d7:e3:57:c9:e7:bb:6a:05:f0:70:7b:29:8b:
         87:36:fa:56:33:61:71:b3:1e:3b:e8:b9:cb:e9:e8:45:d7:35:
         bb:c2:82:81:c0:aa:c2:d9:38:59:97:2a:6b:19:a0:f8:d0:65:
         0d:6a:fd:4c:da:3a:9f:1b:0a:bc:9b:27:84:39:1e:7f:5f:6d:
         19:5d:1e:ce:3d:0d:ac:9d:69:14:6b:b6:e0:59:9c:65:7a:10:
         a2:fb:27:31:ae:cf:75:6d:64:22:9a:dd:90:62:10:1c:35:bd:
         76:50:b2:e0:93:83:bc:8b:81:09:52:ac:95:e1:1f:9a:76:54:
         b4:95:da:9f:72:d5:12:a9:42:5b:7d:23:90:c2:ab:07:f9:15:
         a8:07:cf:26:e7:fa:72:f4:79:32:a5:e0:a4:8b:33:5c:a9:8f:
         a2:b7:5b:0b
-----BEGIN CERTIFICATE-----
MIIDUjCCAjqgAwIBAgIRAIb7FSrde+rmuzVTuzas4OswDQYJKoZIhvcNAQELBQAw
FjEUMBIGA1UEAwwLRWFzeS1SU0EgQ0EwHhcNMjQwNTE2MDAyMjQwWhcNMjcwNTAx
MDAyMjQwWjAOMQwwCgYDVQQDDANtczEwggEiMA0GCSqGSIb3DQEBAQUAA4IBDwAw
ggEKAoIBAQC4/1qnFiH2ojd06XICxEMoJmlVbexKrnhrQbIbyU8TWcSVt8ZZutwW
pU3YEYJtfCztVEeCarQziOA+HyRlV6DVZkRk6DjTLlf3qeBeqe2B4UsC3mu2qG8z
q207O2rEBmUWbcfiuQCpWh8MUUQZk12C1TCoz5k0A6/nZEGWLS8FsSy3fB+8aijB
LuNl3rGQ0C+na0Z5BcuBb8MQKG9W2+/YHF82cpVsoLsNj617GixiAL9y1ofpLpbz
9YbsUjUcHh40gyjMB4x9xlafzZN9QcAw4E1wty+738HwJPsJV2SFl1sMRMkIDcLp
FpR/KH4RfJpgALdHmOhSKVyUgBlsvNaRAgMBAAGjgaIwgZ8wCQYDVR0TBAIwADAd
BgNVHQ4EFgQUjpquiwkmLV6646u+qwcMjltQmh0wUQYDVR0jBEowSIAUZ2Ljs43j
n9bPfVX0ARSOvHUQTjehGqQYMBYxFDASBgNVBAMMC0Vhc3ktUlNBIENBghRy0isY
1lUKH/JG90hz6L02v3+o+TATBgNVHSUEDDAKBggrBgEFBQcDAjALBgNVHQ8EBAMC
B4AwDQYJKoZIhvcNAQELBQADggEBAEOXx1Smmzy35AAYMGALItNhSeC3Xgd+uJdT
YKIBI3dzbfNqj+J2HNjYhFy8KLcaEZk7nDOFcztd4sv3RaGRGbjS2WEZUlDK9aW+
UEWZzwKBIZllgQmGuUOgvuKv2utC1+NXyee7agXwcHspi4c2+lYzYXGzHjvoucvp
6EXXNbvCgoHAqsLZOFmXKmsZoPjQZQ1q/UzaOp8bCrybJ4Q5Hn9fbRldHs49Dayd
aRRrtuBZnGV6EKL7JzGuz3VtZCKa3ZBiEBw1vXZQsuCTg7yLgQlSrJXhH5p2VLSV
2p9y1RKpQlt9I5DCqwf5FagHzybn+nL0eTKl4KSLM1ypj6K3Wws=
-----END CERTIFICATE-----
