Certificate:
    Data:
        Version: 3 (0x2)
        Serial Number:
            04:37:f7:c8:77:a3:6a:55:d6:bb:91:44:86:a6:61:05
        Signature Algorithm: sha256WithRSAEncryption
        Issuer: CN=Easy-RSA CA
        Validity
            Not Before: May 14 19:40:09 2024 GMT
            Not After : Apr 29 19:40:09 2027 GMT
        Subject: CN=server
        Subject Public Key Info:
            Public Key Algorithm: rsaEncryption
                RSA Public-Key: (2048 bit)
                Modulus:
                    00:b6:e4:64:ae:94:5d:cd:03:cf:4c:17:d4:d8:8e:
                    57:f1:6f:db:16:8e:7c:36:e5:15:8f:a8:d2:f7:ef:
                    c2:2e:db:b3:5f:23:35:b5:1b:8d:ce:49:b0:4e:8e:
                    32:07:91:51:60:88:88:cd:d2:ab:15:e1:fb:ae:a0:
                    3c:6c:c5:d4:50:12:25:01:2d:73:de:4d:a0:7f:a0:
                    60:b0:4f:ff:ba:94:36:9f:67:3d:66:38:d7:66:f9:
                    b2:5c:5a:df:ba:1d:52:19:ab:a6:1d:f3:4b:41:ae:
                    74:30:ec:d7:47:78:af:d4:34:97:5d:4a:e5:27:7a:
                    fd:3d:36:07:e3:75:4c:84:27:9a:31:ba:e5:0d:c9:
                    25:65:9a:28:22:36:65:b7:77:3f:01:6f:54:cc:9c:
                    7f:64:6c:53:dd:ef:df:5d:3f:6c:38:ca:02:88:37:
                    46:fe:bc:42:02:f3:09:60:74:ed:dc:38:8d:0b:6f:
                    70:63:64:f9:a0:6e:01:12:50:ca:72:66:84:1f:66:
                    c8:80:c6:e0:63:9e:ca:c0:d9:97:7c:c1:cc:9f:08:
                    92:c0:9b:c8:e3:58:60:97:20:e3:bd:2e:e9:9d:fa:
                    71:36:84:7d:69:5d:52:ad:2f:1d:40:71:10:a7:f1:
                    34:f6:c9:db:00:60:26:87:c3:d6:b4:a0:4d:38:79:
                    d4:f3
                Exponent: 65537 (0x10001)
        X509v3 extensions:
            X509v3 Basic Constraints: 
                CA:FALSE
            X509v3 Subject Key Identifier: 
                23:0F:84:28:25:85:47:83:C3:B2:21:8D:C9:61:E6:66:65:EA:0E:1A
            X509v3 Authority Key Identifier: 
                keyid:50:EC:50:C7:50:9C:58:1A:B7:A7:3F:C0:C4:FA:1B:AE:92:47:6F:F2
                DirName:/CN=Easy-RSA CA
                serial:0C:C5:A0:F7:76:9B:7C:AA:00:43:C0:8D:92:6D:0C:C7:74:36:15:F3

            X509v3 Extended Key Usage: 
                TLS Web Server Authentication
            X509v3 Key Usage: 
                Digital Signature, Key Encipherment
            X509v3 Subject Alternative Name: 
                DNS:server
    Signature Algorithm: sha256WithRSAEncryption
         81:2e:03:23:af:a5:cc:ef:22:9a:44:78:ab:da:bd:bd:a8:0f:
         ab:f7:2f:1f:f8:60:ab:c7:01:87:42:a4:86:64:85:f6:34:e7:
         5c:72:9c:ef:1d:0e:27:ff:36:f8:2f:09:76:96:93:02:16:fd:
         18:cf:df:c4:0e:27:96:f7:7e:12:02:59:e6:fb:8a:a5:57:3d:
         61:56:e6:d8:f8:fc:0f:1b:92:83:a7:83:d3:0a:21:f8:78:03:
         52:71:b2:f8:fd:dd:04:b6:26:04:ce:44:28:77:28:40:84:22:
         08:fc:e4:54:d3:08:92:79:97:6f:ed:db:85:5d:3c:51:f6:fd:
         07:5b:73:27:1a:57:69:d5:fb:82:39:df:ce:c5:3b:a6:a9:81:
         5c:8d:00:2a:fb:61:ab:cc:26:8f:9c:a9:cc:06:09:82:bd:78:
         cc:ee:c5:42:e3:40:00:04:ca:81:38:98:94:71:b5:72:75:f2:
         3f:29:41:29:da:4a:63:64:1b:51:c0:61:10:81:6c:65:08:65:
         37:a0:49:52:ff:91:4c:1e:16:5f:58:4a:6b:e5:86:ee:56:56:
         a6:a4:8f:27:79:53:62:92:67:88:2c:d8:f8:d1:ae:04:ad:ed:
         3e:26:92:ab:11:6f:67:30:1d:dc:d4:65:46:3b:8f:7f:bc:26:
         5f:55:bf:36
-----BEGIN CERTIFICATE-----
MIIDZzCCAk+gAwIBAgIQBDf3yHejalXWu5FEhqZhBTANBgkqhkiG9w0BAQsFADAW
MRQwEgYDVQQDDAtFYXN5LVJTQSBDQTAeFw0yNDA1MTQxOTQwMDlaFw0yNzA0Mjkx
OTQwMDlaMBExDzANBgNVBAMMBnNlcnZlcjCCASIwDQYJKoZIhvcNAQEBBQADggEP
ADCCAQoCggEBALbkZK6UXc0Dz0wX1NiOV/Fv2xaOfDblFY+o0vfvwi7bs18jNbUb
jc5JsE6OMgeRUWCIiM3SqxXh+66gPGzF1FASJQEtc95NoH+gYLBP/7qUNp9nPWY4
12b5slxa37odUhmrph3zS0GudDDs10d4r9Q0l11K5Sd6/T02B+N1TIQnmjG65Q3J
JWWaKCI2Zbd3PwFvVMycf2RsU93v310/bDjKAog3Rv68QgLzCWB07dw4jQtvcGNk
+aBuARJQynJmhB9myIDG4GOeysDZl3zBzJ8IksCbyONYYJcg470u6Z36cTaEfWld
Uq0vHUBxEKfxNPbJ2wBgJofD1rSgTTh51PMCAwEAAaOBtTCBsjAJBgNVHRMEAjAA
MB0GA1UdDgQWBBQjD4QoJYVHg8OyIY3JYeZmZeoOGjBRBgNVHSMESjBIgBRQ7FDH
UJxYGrenP8DE+huukkdv8qEapBgwFjEUMBIGA1UEAwwLRWFzeS1SU0EgQ0GCFAzF
oPd2m3yqAEPAjZJtDMd0NhXzMBMGA1UdJQQMMAoGCCsGAQUFBwMBMAsGA1UdDwQE
AwIFoDARBgNVHREECjAIggZzZXJ2ZXIwDQYJKoZIhvcNAQELBQADggEBAIEuAyOv
pczvIppEeKvavb2oD6v3Lx/4YKvHAYdCpIZkhfY051xynO8dDif/NvgvCXaWkwIW
/RjP38QOJ5b3fhICWeb7iqVXPWFW5tj4/A8bkoOng9MKIfh4A1Jxsvj93QS2JgTO
RCh3KECEIgj85FTTCJJ5l2/t24VdPFH2/QdbcycaV2nV+4I5387FO6apgVyNACr7
YavMJo+cqcwGCYK9eMzuxULjQAAEyoE4mJRxtXJ18j8pQSnaSmNkG1HAYRCBbGUI
ZTegSVL/kUweFl9YSmvlhu5WVqakjyd5U2KSZ4gs2PjRrgSt7T4mkqsRb2cwHdzU
ZUY7j3+8Jl9VvzY=
-----END CERTIFICATE-----
